target datalayout = "e-m:e-p270:32:32-p271:32:32-p272:64:64-i64:64-i128:128-f80:128-n8:16:32:64-S128"
target triple = "x86_64-pc-linux-gnu"

%struct.Gia_Man_t_ = type { ptr, ptr, i32, i32, i32, i32, ptr, ptr, i32, i32, i32, ptr, ptr, %struct.Vec_Int_t_, %struct.Vec_Int_t_, i32, i32, i32, %struct.Vec_Int_t_, ptr, ptr, ptr, i32, i32, i32, i32, ptr, ptr, ptr, ptr, ptr, i32, i32, ptr, i32, ptr, ptr, ptr, ptr, ptr, ptr, ptr, ptr, ptr, ptr, ptr, ptr, ptr, ptr, ptr, ptr, ptr, ptr, %struct.Vec_Int_t_, %struct.Vec_Int_t_, ptr, ptr, ptr, ptr, ptr, ptr, ptr, ptr, ptr, ptr, ptr, ptr, ptr, ptr, ptr, ptr, ptr, ptr, ptr, ptr, ptr, i32, float, float, ptr, ptr, i32, ptr, ptr, ptr, ptr, ptr, ptr, ptr, ptr, ptr, ptr, ptr, ptr, ptr, ptr, ptr, i64, i64, ptr, ptr, i32, i32, i32, i32, i32, i32, i32, i32, i32, i32, i32, i32, ptr, ptr, ptr, ptr, ptr, ptr, ptr, ptr, i32, i32, i32, ptr, i32, i32, ptr, ptr, ptr, ptr, ptr, ptr, i32, i32, ptr, %struct.Vec_Int_t_, %struct.Vec_Int_t_, %struct.Vec_Int_t_, ptr, ptr, ptr, i32, i32, i32, i32, ptr, ptr, ptr, ptr, ptr }
%struct.Vec_Int_t_ = type { i32, i32, ptr }
%struct.Gia_Obj_t_ = type <{ i64, i32 }>

@.str.45 = private unnamed_addr constant [63 x i8] c"Gia_ManMappingVerify: Buffer driver %d does not have mapping.\0A\00", align 1
@.str.46 = private unnamed_addr constant [59 x i8] c"Gia_ManMappingVerify: CO driver %d does not have mapping.\0A\00", align 1

; Function Attrs: inlinehint nounwind uwtable
define internal i32 @Vec_IntEntry(ptr noundef %0, i32 noundef %1) #3 {
  %3 = alloca ptr, align 8
  %4 = alloca i32, align 4
  store ptr %0, ptr %3, align 8, !tbaa !74
  store i32 %1, ptr %4, align 4, !tbaa !42
  %5 = load ptr, ptr %3, align 8, !tbaa !74
  %6 = getelementptr inbounds nuw %struct.Vec_Int_t_, ptr %5, i32 0, i32 2
  %7 = load ptr, ptr %6, align 8, !tbaa !94
  %8 = load i32, ptr %4, align 4, !tbaa !42
  %9 = sext i32 %8 to i64
  %10 = getelementptr inbounds i32, ptr %7, i64 %9
  %11 = load i32, ptr %10, align 4, !tbaa !42
  ret i32 %11
}

; Function Attrs: inlinehint nounwind uwtable
define internal i32 @Gia_ObjIsAnd(ptr noundef %0) #3 {
  %2 = alloca ptr, align 8
  store ptr %0, ptr %2, align 8, !tbaa !72
  %3 = load ptr, ptr %2, align 8, !tbaa !72
  %4 = load i64, ptr %3, align 4
  %5 = lshr i64 %4, 31
  %6 = and i64 %5, 1
  %7 = trunc i64 %6 to i32
  %8 = icmp ne i32 %7, 0
  br i1 %8, label %15, label %9

9:                                                ; preds = %1
  %10 = load ptr, ptr %2, align 8, !tbaa !72
  %11 = load i64, ptr %10, align 4
  %12 = and i64 %11, 536870911
  %13 = trunc i64 %12 to i32
  %14 = icmp ne i32 %13, 536870911
  br label %15

15:                                               ; preds = %9, %1
  %16 = phi i1 [ false, %1 ], [ %14, %9 ]
  %17 = zext i1 %16 to i32
  ret i32 %17
}

; Function Attrs: inlinehint nounwind uwtable
define internal ptr @Gia_ManCo(ptr noundef %0, i32 noundef %1) #3 {
  %3 = alloca ptr, align 8
  %4 = alloca i32, align 4
  store ptr %0, ptr %3, align 8, !tbaa !40
  store i32 %1, ptr %4, align 4, !tbaa !42
  %5 = load ptr, ptr %3, align 8, !tbaa !40
  %6 = load ptr, ptr %3, align 8, !tbaa !40
  %7 = getelementptr inbounds nuw %struct.Gia_Man_t_, ptr %6, i32 0, i32 12
  %8 = load ptr, ptr %7, align 8, !tbaa !71
  %9 = load i32, ptr %4, align 4, !tbaa !42
  %10 = call i32 @Vec_IntEntry(ptr noundef %8, i32 noundef %9)
  %11 = call ptr @Gia_ManObj(ptr noundef %5, i32 noundef %10)
  ret ptr %11
}

; Function Attrs: inlinehint nounwind uwtable
define internal i32 @Vec_IntSize(ptr noundef %0) #3 {
  %2 = alloca ptr, align 8
  store ptr %0, ptr %2, align 8, !tbaa !74
  %3 = load ptr, ptr %2, align 8, !tbaa !74
  %4 = getelementptr inbounds nuw %struct.Vec_Int_t_, ptr %3, i32 0, i32 1
  %5 = load i32, ptr %4, align 4, !tbaa !75
  ret i32 %5
}

; Function Attrs: inlinehint nounwind uwtable
define internal i32 @Gia_ObjIsLut(ptr noundef %0, i32 noundef %1) #3 {
  %3 = alloca ptr, align 8
  %4 = alloca i32, align 4
  store ptr %0, ptr %3, align 8, !tbaa !40
  store i32 %1, ptr %4, align 4, !tbaa !42
  %5 = load ptr, ptr %3, align 8, !tbaa !40
  %6 = getelementptr inbounds nuw %struct.Gia_Man_t_, ptr %5, i32 0, i32 37
  %7 = load ptr, ptr %6, align 8, !tbaa !63
  %8 = load i32, ptr %4, align 4, !tbaa !42
  %9 = call i32 @Vec_IntEntry(ptr noundef %7, i32 noundef %8)
  %10 = icmp ne i32 %9, 0
  %11 = zext i1 %10 to i32
  ret i32 %11
}

; Function Attrs: inlinehint nounwind uwtable
define internal i32 @Gia_ObjId(ptr noundef %0, ptr noundef %1) #3 {
  %3 = alloca ptr, align 8
  %4 = alloca ptr, align 8
  store ptr %0, ptr %3, align 8, !tbaa !40
  store ptr %1, ptr %4, align 8, !tbaa !72
  %5 = load ptr, ptr %4, align 8, !tbaa !72
  %6 = load ptr, ptr %3, align 8, !tbaa !40
  %7 = getelementptr inbounds nuw %struct.Gia_Man_t_, ptr %6, i32 0, i32 6
  %8 = load ptr, ptr %7, align 8, !tbaa !76
  %9 = ptrtoint ptr %5 to i64
  %10 = ptrtoint ptr %8 to i64
  %11 = sub i64 %9, %10
  %12 = sdiv exact i64 %11, 12
  %13 = trunc i64 %12 to i32
  ret i32 %13
}

; Function Attrs: inlinehint nounwind uwtable
define internal i32 @Gia_ObjIsAndNotBuf(ptr noundef %0) #3 {
  %2 = alloca ptr, align 8
  store ptr %0, ptr %2, align 8, !tbaa !72
  %3 = load ptr, ptr %2, align 8, !tbaa !72
  %4 = call i32 @Gia_ObjIsAnd(ptr noundef %3)
  %5 = icmp ne i32 %4, 0
  br i1 %5, label %6, label %17

6:                                                ; preds = %1
  %7 = load ptr, ptr %2, align 8, !tbaa !72
  %8 = load i64, ptr %7, align 4
  %9 = and i64 %8, 536870911
  %10 = trunc i64 %9 to i32
  %11 = load ptr, ptr %2, align 8, !tbaa !72
  %12 = load i64, ptr %11, align 4
  %13 = lshr i64 %12, 32
  %14 = and i64 %13, 536870911
  %15 = trunc i64 %14 to i32
  %16 = icmp ne i32 %10, %15
  br label %17

17:                                               ; preds = %6, %1
  %18 = phi i1 [ false, %1 ], [ %16, %6 ]
  %19 = zext i1 %18 to i32
  ret i32 %19
}

; Function Attrs: inlinehint nounwind uwtable
define internal ptr @Gia_ObjFanin0(ptr noundef %0) #3 {
  %2 = alloca ptr, align 8
  store ptr %0, ptr %2, align 8, !tbaa !72
  %3 = load ptr, ptr %2, align 8, !tbaa !72
  %4 = load ptr, ptr %2, align 8, !tbaa !72
  %5 = load i64, ptr %4, align 4
  %6 = and i64 %5, 536870911
  %7 = trunc i64 %6 to i32
  %8 = sext i32 %7 to i64
  %9 = sub i64 0, %8
  %10 = getelementptr inbounds %struct.Gia_Obj_t_, ptr %3, i64 %9
  ret ptr %10
}

; Function Attrs: inlinehint nounwind uwtable
define internal i32 @Gia_ObjIsBuf(ptr noundef %0) #3 {
  %2 = alloca ptr, align 8
  store ptr %0, ptr %2, align 8, !tbaa !72
  %3 = load ptr, ptr %2, align 8, !tbaa !72
  %4 = load i64, ptr %3, align 4
  %5 = and i64 %4, 536870911
  %6 = trunc i64 %5 to i32
  %7 = load ptr, ptr %2, align 8, !tbaa !72
  %8 = load i64, ptr %7, align 4
  %9 = lshr i64 %8, 32
  %10 = and i64 %9, 536870911
  %11 = trunc i64 %10 to i32
  %12 = icmp eq i32 %6, %11
  br i1 %12, label %13, label %27

13:                                               ; preds = %1
  %14 = load ptr, ptr %2, align 8, !tbaa !72
  %15 = load i64, ptr %14, align 4
  %16 = and i64 %15, 536870911
  %17 = trunc i64 %16 to i32
  %18 = icmp ne i32 %17, 536870911
  br i1 %18, label %19, label %27

19:                                               ; preds = %13
  %20 = load ptr, ptr %2, align 8, !tbaa !72
  %21 = load i64, ptr %20, align 4
  %22 = lshr i64 %21, 31
  %23 = and i64 %22, 1
  %24 = trunc i64 %23 to i32
  %25 = icmp ne i32 %24, 0
  %26 = xor i1 %25, true
  br label %27

27:                                               ; preds = %19, %13, %1
  %28 = phi i1 [ false, %13 ], [ false, %1 ], [ %26, %19 ]
  %29 = zext i1 %28 to i32
  ret i32 %29
}

; Function Attrs: inlinehint nounwind uwtable
define internal ptr @Gia_ManObj(ptr noundef %0, i32 noundef %1) #3 {
  %3 = alloca ptr, align 8
  %4 = alloca i32, align 4
  store ptr %0, ptr %3, align 8, !tbaa !40
  store i32 %1, ptr %4, align 4, !tbaa !42
  %5 = load ptr, ptr %3, align 8, !tbaa !40
  %6 = getelementptr inbounds nuw %struct.Gia_Man_t_, ptr %5, i32 0, i32 6
  %7 = load ptr, ptr %6, align 8, !tbaa !76
  %8 = load i32, ptr %4, align 4, !tbaa !42
  %9 = sext i32 %8 to i64
  %10 = getelementptr inbounds %struct.Gia_Obj_t_, ptr %7, i64 %9
  ret ptr %10
}

; Function Attrs: inlinehint nounwind uwtable
define internal i32 @Gia_ManBufNum(ptr noundef %0) #3 {
  %2 = alloca ptr, align 8
  store ptr %0, ptr %2, align 8, !tbaa !40
  %3 = load ptr, ptr %2, align 8, !tbaa !40
  %4 = getelementptr inbounds nuw %struct.Gia_Man_t_, ptr %3, i32 0, i32 10
  %5 = load i32, ptr %4, align 8, !tbaa !294
  ret i32 %5
}

; Function Attrs: nounwind uwtable
define void @Gia_ManMappingVerify(ptr noundef %0) #0 {
  %2 = alloca ptr, align 8
  %3 = alloca ptr, align 8
  %4 = alloca ptr, align 8
  %5 = alloca i32, align 4
  %6 = alloca i32, align 4
  store ptr %0, ptr %2, align 8, !tbaa !40
  call void @llvm.lifetime.start.p0(i64 8, ptr %3) #14
  call void @llvm.lifetime.start.p0(i64 8, ptr %4) #14
  call void @llvm.lifetime.start.p0(i64 4, ptr %5) #14
  call void @llvm.lifetime.start.p0(i64 4, ptr %6) #14
  store i32 1, ptr %6, align 4, !tbaa !42
  %7 = load ptr, ptr %2, align 8, !tbaa !40
  call void @Gia_ManIncrementTravId(ptr noundef %7)
  %8 = load ptr, ptr %2, align 8, !tbaa !40
  %9 = call i32 @Gia_ManBufNum(ptr noundef %8)
  %10 = icmp ne i32 %9, 0
  br i1 %10, label %11, label %12

11:                                               ; preds = %1
  br label %16

12:                                               ; preds = %1
  %13 = load ptr, ptr %2, align 8, !tbaa !40
  %14 = getelementptr inbounds nuw %struct.Gia_Man_t_, ptr %13, i32 0, i32 4
  %15 = load i32, ptr %14, align 8, !tbaa !45
  br label %16

16:                                               ; preds = %12, %11
  %17 = phi i32 [ 0, %11 ], [ %15, %12 ]
  store i32 %17, ptr %5, align 4, !tbaa !42
  br label %18

18:                                               ; preds = %61, %16
  %19 = load i32, ptr %5, align 4, !tbaa !42
  %20 = load ptr, ptr %2, align 8, !tbaa !40
  %21 = getelementptr inbounds nuw %struct.Gia_Man_t_, ptr %20, i32 0, i32 4
  %22 = load i32, ptr %21, align 8, !tbaa !45
  %23 = icmp slt i32 %19, %22
  br i1 %23, label %24, label %29

24:                                               ; preds = %18
  %25 = load ptr, ptr %2, align 8, !tbaa !40
  %26 = load i32, ptr %5, align 4, !tbaa !42
  %27 = call ptr @Gia_ManObj(ptr noundef %25, i32 noundef %26)
  store ptr %27, ptr %3, align 8, !tbaa !72
  %28 = icmp ne ptr %27, null
  br label %29

29:                                               ; preds = %24, %18
  %30 = phi i1 [ false, %18 ], [ %28, %24 ]
  br i1 %30, label %31, label %64

31:                                               ; preds = %29
  %32 = load ptr, ptr %3, align 8, !tbaa !72
  %33 = call i32 @Gia_ObjIsBuf(ptr noundef %32)
  %34 = icmp ne i32 %33, 0
  br i1 %34, label %36, label %35

35:                                               ; preds = %31
  br label %60

36:                                               ; preds = %31
  %37 = load ptr, ptr %3, align 8, !tbaa !72
  %38 = call ptr @Gia_ObjFanin0(ptr noundef %37)
  store ptr %38, ptr %4, align 8, !tbaa !72
  %39 = load ptr, ptr %4, align 8, !tbaa !72
  %40 = call i32 @Gia_ObjIsAndNotBuf(ptr noundef %39)
  %41 = icmp ne i32 %40, 0
  br i1 %41, label %43, label %42

42:                                               ; preds = %36
  br label %61

43:                                               ; preds = %36
  %44 = load ptr, ptr %2, align 8, !tbaa !40
  %45 = load ptr, ptr %2, align 8, !tbaa !40
  %46 = load ptr, ptr %4, align 8, !tbaa !72
  %47 = call i32 @Gia_ObjId(ptr noundef %45, ptr noundef %46)
  %48 = call i32 @Gia_ObjIsLut(ptr noundef %44, i32 noundef %47)
  %49 = icmp ne i32 %48, 0
  br i1 %49, label %54, label %50

50:                                               ; preds = %43
  %51 = load ptr, ptr %2, align 8, !tbaa !40
  %52 = load ptr, ptr %4, align 8, !tbaa !72
  %53 = call i32 @Gia_ObjId(ptr noundef %51, ptr noundef %52)
  call void (i32, ptr, ...) @Abc_Print(i32 noundef -1, ptr noundef @.str.45, i32 noundef %53)
  store i32 0, ptr %6, align 4, !tbaa !42
  br label %61

54:                                               ; preds = %43
  %55 = load ptr, ptr %2, align 8, !tbaa !40
  %56 = load ptr, ptr %4, align 8, !tbaa !72
  %57 = call i32 @Gia_ManMappingVerify_rec(ptr noundef %55, ptr noundef %56)
  %58 = load i32, ptr %6, align 4, !tbaa !42
  %59 = and i32 %58, %57
  store i32 %59, ptr %6, align 4, !tbaa !42
  br label %60

60:                                               ; preds = %54, %35
  br label %61

61:                                               ; preds = %60, %50, %42
  %62 = load i32, ptr %5, align 4, !tbaa !42
  %63 = add nsw i32 %62, 1
  store i32 %63, ptr %5, align 4, !tbaa !42
  br label %18, !llvm.loop !292

64:                                               ; preds = %29
  store i32 0, ptr %5, align 4, !tbaa !42
  br label %65

65:                                               ; preds = %103, %64
  %66 = load i32, ptr %5, align 4, !tbaa !42
  %67 = load ptr, ptr %2, align 8, !tbaa !40
  %68 = getelementptr inbounds nuw %struct.Gia_Man_t_, ptr %67, i32 0, i32 12
  %69 = load ptr, ptr %68, align 8, !tbaa !71
  %70 = call i32 @Vec_IntSize(ptr noundef %69)
  %71 = icmp slt i32 %66, %70
  br i1 %71, label %72, label %77

72:                                               ; preds = %65
  %73 = load ptr, ptr %2, align 8, !tbaa !40
  %74 = load i32, ptr %5, align 4, !tbaa !42
  %75 = call ptr @Gia_ManCo(ptr noundef %73, i32 noundef %74)
  store ptr %75, ptr %3, align 8, !tbaa !72
  %76 = icmp ne ptr %75, null
  br label %77

77:                                               ; preds = %72, %65
  %78 = phi i1 [ false, %65 ], [ %76, %72 ]
  br i1 %78, label %79, label %106

79:                                               ; preds = %77
  %80 = load ptr, ptr %3, align 8, !tbaa !72
  %81 = call ptr @Gia_ObjFanin0(ptr noundef %80)
  store ptr %81, ptr %4, align 8, !tbaa !72
  %82 = load ptr, ptr %4, align 8, !tbaa !72
  %83 = call i32 @Gia_ObjIsAndNotBuf(ptr noundef %82)
  %84 = icmp ne i32 %83, 0
  br i1 %84, label %86, label %85

85:                                               ; preds = %79
  br label %103

86:                                               ; preds = %79
  %87 = load ptr, ptr %2, align 8, !tbaa !40
  %88 = load ptr, ptr %2, align 8, !tbaa !40
  %89 = load ptr, ptr %4, align 8, !tbaa !72
  %90 = call i32 @Gia_ObjId(ptr noundef %88, ptr noundef %89)
  %91 = call i32 @Gia_ObjIsLut(ptr noundef %87, i32 noundef %90)
  %92 = icmp ne i32 %91, 0
  br i1 %92, label %97, label %93

93:                                               ; preds = %86
  %94 = load ptr, ptr %2, align 8, !tbaa !40
  %95 = load ptr, ptr %4, align 8, !tbaa !72
  %96 = call i32 @Gia_ObjId(ptr noundef %94, ptr noundef %95)
  call void (i32, ptr, ...) @Abc_Print(i32 noundef -1, ptr noundef @.str.46, i32 noundef %96)
  store i32 0, ptr %6, align 4, !tbaa !42
  br label %103

97:                                               ; preds = %86
  %98 = load ptr, ptr %2, align 8, !tbaa !40
  %99 = load ptr, ptr %4, align 8, !tbaa !72
  %100 = call i32 @Gia_ManMappingVerify_rec(ptr noundef %98, ptr noundef %99)
  %101 = load i32, ptr %6, align 4, !tbaa !42
  %102 = and i32 %101, %100
  store i32 %102, ptr %6, align 4, !tbaa !42
  br label %103

103:                                              ; preds = %97, %93, %85
  %104 = load i32, ptr %5, align 4, !tbaa !42
  %105 = add nsw i32 %104, 1
  store i32 %105, ptr %5, align 4, !tbaa !42
  br label %65, !llvm.loop !293

106:                                              ; preds = %77
  call void @llvm.lifetime.end.p0(i64 4, ptr %6) #14
  call void @llvm.lifetime.end.p0(i64 4, ptr %5) #14
  call void @llvm.lifetime.end.p0(i64 8, ptr %4) #14
  call void @llvm.lifetime.end.p0(i64 8, ptr %3) #14
  ret void
}