; Function Attrs: nounwind uwtable
define void @Gia_ManMappingVerify(ptr noundef %0) local_unnamed_addr #4 {
  tail call void @Gia_ManIncrementTravId(ptr noundef %0) #27
  %2 = getelementptr i8, ptr %0, i64 56
  %.val57 = load i32, ptr %2, align 8, !tbaa !279
  %.not = icmp eq i32 %.val57, 0
  br i1 %.not, label %.thread, label %4

.thread:                                          ; preds = %1
  %3 = getelementptr i8, ptr %0, i64 32
  br label %.critedge

4:                                                ; preds = %1
  %.phi.trans.insert = getelementptr inbounds nuw i8, ptr %0, i64 24
  %.pre = load i32, ptr %.phi.trans.insert, align 8, !tbaa !27
  %5 = getelementptr i8, ptr %0, i64 32
  %6 = getelementptr inbounds nuw i8, ptr %0, i64 24
  %7 = icmp sgt i32 %.pre, 0
  br i1 %7, label %.lr.ph, label %.critedge

.lr.ph:                                           ; preds = %4
  %8 = getelementptr i8, ptr %0, i64 264
  br label %9

9:                                                ; preds = %.lr.ph, %Gia_ObjIsAndNotBuf.exit.thread
  %indvars.iv = phi i64 [ 0, %.lr.ph ], [ %indvars.iv.next, %Gia_ObjIsAndNotBuf.exit.thread ]
  %.val48 = load ptr, ptr %5, align 8, !tbaa !55
  %10 = getelementptr inbounds nuw %struct.Gia_Obj_t_, ptr %.val48, i64 %indvars.iv
  %.not39 = icmp eq ptr %.val48, null
  br i1 %.not39, label %.critedge, label %11

11:                                               ; preds = %9
  %.val58 = load i64, ptr %10, align 4
  %12 = trunc i64 %.val58 to i32
  %13 = and i32 %12, 536870911
  %14 = lshr i64 %.val58, 32
  %15 = trunc nuw i64 %14 to i32
  %16 = and i32 %15, 536870911
  %17 = icmp ne i32 %13, %16
  %.not.i = icmp eq i32 %13, 536870911
  %or.cond.not.i.not65 = or i1 %.not.i, %17
  %18 = and i64 %.val58, 2147483648
  %.not4.i = icmp ne i64 %18, 0
  %narrow.i.not = or i1 %.not4.i, %or.cond.not.i.not65
  br i1 %narrow.i.not, label %Gia_ObjIsAndNotBuf.exit.thread, label %19

19:                                               ; preds = %11
  %20 = and i64 %.val58, 536870911
  %21 = sub nsw i64 0, %20
  %22 = getelementptr inbounds %struct.Gia_Obj_t_, ptr %10, i64 %21
  %.val56 = load i64, ptr %22, align 4
  %23 = and i64 %.val56, 2147483648
  %.not.i.i = icmp ne i64 %23, 0
  %24 = and i64 %.val56, 536870911
  %25 = icmp eq i64 %24, 536870911
  %narrow.i.not.i = or i1 %.not.i.i, %25
  br i1 %narrow.i.not.i, label %Gia_ObjIsAndNotBuf.exit.thread, label %Gia_ObjIsAndNotBuf.exit

Gia_ObjIsAndNotBuf.exit:                          ; preds = %19
  %26 = lshr i64 %.val56, 32
  %27 = xor i64 %26, %.val56
  %28 = and i64 %27, 536870911
  %.not66 = icmp eq i64 %28, 0
  br i1 %.not66, label %Gia_ObjIsAndNotBuf.exit.thread, label %29

29:                                               ; preds = %Gia_ObjIsAndNotBuf.exit
  %30 = ptrtoint ptr %22 to i64
  %31 = ptrtoint ptr %.val48 to i64
  %32 = sub i64 %30, %31
  %33 = sdiv exact i64 %32, 12
  %.val46 = load ptr, ptr %8, align 8, !tbaa !46
  %34 = getelementptr i8, ptr %.val46, i64 8
  %.val46.val = load ptr, ptr %34, align 8, !tbaa !47
  %sext = shl i64 %33, 32
  %35 = ashr exact i64 %sext, 30
  %36 = getelementptr inbounds i8, ptr %.val46.val, i64 %35
  %37 = load i32, ptr %36, align 4, !tbaa !48
  %.not67 = icmp eq i32 %37, 0
  br i1 %.not67, label %38, label %40

38:                                               ; preds = %29
  %39 = trunc i64 %33 to i32
  tail call void (i32, ptr, ...) @Abc_Print(i32 noundef -1, ptr noundef nonnull @.str.45, i32 noundef %39)
  br label %Gia_ObjIsAndNotBuf.exit.thread

40:                                               ; preds = %29
  %41 = tail call i32 @Gia_ManMappingVerify_rec(ptr noundef nonnull %0, ptr noundef nonnull %22)
  br label %Gia_ObjIsAndNotBuf.exit.thread

Gia_ObjIsAndNotBuf.exit.thread:                   ; preds = %19, %40, %11, %Gia_ObjIsAndNotBuf.exit, %38
  %indvars.iv.next = add nuw nsw i64 %indvars.iv, 1
  %42 = load i32, ptr %6, align 8, !tbaa !27
  %43 = sext i32 %42 to i64
  %44 = icmp slt i64 %indvars.iv.next, %43
  br i1 %44, label %9, label %.critedge, !llvm.loop !280

.critedge:                                        ; preds = %9, %Gia_ObjIsAndNotBuf.exit.thread, %.thread, %4
  %45 = phi ptr [ %3, %.thread ], [ %5, %4 ], [ %5, %Gia_ObjIsAndNotBuf.exit.thread ], [ %5, %9 ]
  %46 = getelementptr inbounds nuw i8, ptr %0, i64 72
  %47 = load ptr, ptr %46, align 8, !tbaa !53
  %48 = getelementptr i8, ptr %47, i64 4
  %.val4775 = load i32, ptr %48, align 4, !tbaa !54
  %49 = icmp sgt i32 %.val4775, 0
  br i1 %49, label %.lr.ph78, label %.critedge2

.lr.ph78:                                         ; preds = %.critedge
  %50 = getelementptr i8, ptr %0, i64 264
  br label %51

51:                                               ; preds = %.lr.ph78, %Gia_ObjIsAndNotBuf.exit61.thread
  %indvars.iv81 = phi i64 [ 0, %.lr.ph78 ], [ %indvars.iv.next82, %Gia_ObjIsAndNotBuf.exit61.thread ]
  %52 = phi ptr [ %47, %.lr.ph78 ], [ %82, %Gia_ObjIsAndNotBuf.exit61.thread ]
  %.val49 = load ptr, ptr %45, align 8, !tbaa !55
  %.not40 = icmp eq ptr %.val49, null
  br i1 %.not40, label %.critedge2, label %53

53:                                               ; preds = %51
  %54 = getelementptr i8, ptr %52, i64 8
  %.val50.val = load ptr, ptr %54, align 8, !tbaa !47
  %55 = getelementptr inbounds nuw i32, ptr %.val50.val, i64 %indvars.iv81
  %56 = load i32, ptr %55, align 4, !tbaa !48
  %57 = sext i32 %56 to i64
  %58 = getelementptr inbounds %struct.Gia_Obj_t_, ptr %.val49, i64 %57
  %59 = load i64, ptr %58, align 4
  %60 = and i64 %59, 536870911
  %61 = sub nsw i64 0, %60
  %62 = getelementptr inbounds %struct.Gia_Obj_t_, ptr %58, i64 %61
  %.val55 = load i64, ptr %62, align 4
  %63 = and i64 %.val55, 2147483648
  %.not.i.i59 = icmp ne i64 %63, 0
  %64 = and i64 %.val55, 536870911
  %65 = icmp eq i64 %64, 536870911
  %narrow.i.not.i60 = or i1 %.not.i.i59, %65
  br i1 %narrow.i.not.i60, label %Gia_ObjIsAndNotBuf.exit61.thread, label %Gia_ObjIsAndNotBuf.exit61

Gia_ObjIsAndNotBuf.exit61:                        ; preds = %53
  %66 = lshr i64 %.val55, 32
  %67 = xor i64 %66, %.val55
  %68 = and i64 %67, 536870911
  %.not68 = icmp eq i64 %68, 0
  br i1 %.not68, label %Gia_ObjIsAndNotBuf.exit61.thread, label %69

69:                                               ; preds = %Gia_ObjIsAndNotBuf.exit61
  %70 = ptrtoint ptr %62 to i64
  %71 = ptrtoint ptr %.val49 to i64
  %72 = sub i64 %70, %71
  %73 = sdiv exact i64 %72, 12
  %.val = load ptr, ptr %50, align 8, !tbaa !46
  %74 = getelementptr i8, ptr %.val, i64 8
  %.val.val = load ptr, ptr %74, align 8, !tbaa !47
  %sext69 = shl i64 %73, 32
  %75 = ashr exact i64 %sext69, 30
  %76 = getelementptr inbounds i8, ptr %.val.val, i64 %75
  %77 = load i32, ptr %76, align 4, !tbaa !48
  %.not70 = icmp eq i32 %77, 0
  br i1 %.not70, label %78, label %80

78:                                               ; preds = %69
  %79 = trunc i64 %73 to i32
  tail call void (i32, ptr, ...) @Abc_Print(i32 noundef -1, ptr noundef nonnull @.str.46, i32 noundef %79)
  br label %Gia_ObjIsAndNotBuf.exit61.thread

80:                                               ; preds = %69
  %81 = tail call i32 @Gia_ManMappingVerify_rec(ptr noundef nonnull %0, ptr noundef nonnull %62)
  br label %Gia_ObjIsAndNotBuf.exit61.thread

Gia_ObjIsAndNotBuf.exit61.thread:                 ; preds = %53, %Gia_ObjIsAndNotBuf.exit61, %80, %78
  %indvars.iv.next82 = add nuw nsw i64 %indvars.iv81, 1
  %82 = load ptr, ptr %46, align 8, !tbaa !53
  %83 = getelementptr i8, ptr %82, i64 4
  %.val47 = load i32, ptr %83, align 4, !tbaa !54
  %84 = sext i32 %.val47 to i64
  %85 = icmp slt i64 %indvars.iv.next82, %84
  br i1 %85, label %51, label %.critedge2, !llvm.loop !281

.critedge2:                                       ; preds = %51, %Gia_ObjIsAndNotBuf.exit61.thread, %.critedge
  ret void
}